target datalayout = "e-m:e-p270:32:32-p271:32:32-p272:64:64-i64:64-i128:128-f80:128-n8:16:32:64-S128"
target triple = "x86_64-pc-linux-gnu"

%union._znode_op = type { i32 }

@stderr = external global ptr, align 8
@.str.25 = private unnamed_addr constant [4 x i8] c" %u\00", align 1
@.str.158 = private unnamed_addr constant [15 x i8] c" try-catch(%u)\00", align 1
@.str.159 = private unnamed_addr constant [6 x i8] c" THIS\00", align 1
@.str.160 = private unnamed_addr constant [6 x i8] c" NEXT\00", align 1
@.str.161 = private unnamed_addr constant [13 x i8] c" CONSTRUCTOR\00", align 1
@.str.162 = private unnamed_addr constant [28 x i8] c" (unqualified-in-namespace)\00", align 1
@.str.163 = private unnamed_addr constant [8 x i8] c" (self)\00", align 1
@.str.164 = private unnamed_addr constant [10 x i8] c" (parent)\00", align 1
@.str.165 = private unnamed_addr constant [10 x i8] c" (static)\00", align 1
@.str.166 = private unnamed_addr constant [8 x i8] c" (auto)\00", align 1
@.str.167 = private unnamed_addr constant [13 x i8] c" (interface)\00", align 1
@.str.168 = private unnamed_addr constant [9 x i8] c" (trait)\00", align 1
@.str.169 = private unnamed_addr constant [15 x i8] c" (no-autoload)\00", align 1
@.str.170 = private unnamed_addr constant [10 x i8] c" (silent)\00", align 1
@.str.171 = private unnamed_addr constant [13 x i8] c" (exception)\00", align 1

; Function Attrs: nounwind uwtable
define internal void @zend_dump_class_fetch_type(i32 noundef %0) #0 {
  %2 = alloca i32, align 4
  store i32 %0, ptr %2, align 4
  %3 = load i32, ptr %2, align 4
  %4 = and i32 %3, 15
  switch i32 %4, label %23 [
    i32 1, label %5
    i32 2, label %8
    i32 3, label %11
    i32 4, label %14
    i32 5, label %17
    i32 6, label %20
  ]

5:                                                ; preds = %1
  %6 = load ptr, ptr @stderr, align 8
  %7 = call i32 (ptr, ptr, ...) @fprintf(ptr noundef %6, ptr noundef @.str.163) #4
  br label %23

8:                                                ; preds = %1
  %9 = load ptr, ptr @stderr, align 8
  %10 = call i32 (ptr, ptr, ...) @fprintf(ptr noundef %9, ptr noundef @.str.164) #4
  br label %23

11:                                               ; preds = %1
  %12 = load ptr, ptr @stderr, align 8
  %13 = call i32 (ptr, ptr, ...) @fprintf(ptr noundef %12, ptr noundef @.str.165) #4
  br label %23

14:                                               ; preds = %1
  %15 = load ptr, ptr @stderr, align 8
  %16 = call i32 (ptr, ptr, ...) @fprintf(ptr noundef %15, ptr noundef @.str.166) #4
  br label %23

17:                                               ; preds = %1
  %18 = load ptr, ptr @stderr, align 8
  %19 = call i32 (ptr, ptr, ...) @fprintf(ptr noundef %18, ptr noundef @.str.167) #4
  br label %23

20:                                               ; preds = %1
  %21 = load ptr, ptr @stderr, align 8
  %22 = call i32 (ptr, ptr, ...) @fprintf(ptr noundef %21, ptr noundef @.str.168) #4
  br label %23

23:                                               ; preds = %20, %17, %14, %11, %8, %5, %1
  %24 = load i32, ptr %2, align 4
  %25 = and i32 %24, 128
  %26 = icmp ne i32 %25, 0
  br i1 %26, label %27, label %30

27:                                               ; preds = %23
  %28 = load ptr, ptr @stderr, align 8
  %29 = call i32 (ptr, ptr, ...) @fprintf(ptr noundef %28, ptr noundef @.str.169) #4
  br label %30

30:                                               ; preds = %27, %23
  %31 = load i32, ptr %2, align 4
  %32 = and i32 %31, 256
  %33 = icmp ne i32 %32, 0
  br i1 %33, label %34, label %37

34:                                               ; preds = %30
  %35 = load ptr, ptr @stderr, align 8
  %36 = call i32 (ptr, ptr, ...) @fprintf(ptr noundef %35, ptr noundef @.str.170) #4
  br label %37

37:                                               ; preds = %34, %30
  %38 = load i32, ptr %2, align 4
  %39 = and i32 %38, 512
  %40 = icmp ne i32 %39, 0
  br i1 %40, label %41, label %44

41:                                               ; preds = %37
  %42 = load ptr, ptr @stderr, align 8
  %43 = call i32 (ptr, ptr, ...) @fprintf(ptr noundef %42, ptr noundef @.str.171) #4
  br label %44

44:                                               ; preds = %41, %37
  ret void
}

; Function Attrs: nounwind uwtable
define internal void @zend_dump_unused_op(ptr noundef %0, i32 %1, i32 noundef %2) #0 {
  %4 = alloca %union._znode_op, align 4
  %5 = alloca ptr, align 8
  %6 = alloca i32, align 4
  %7 = getelementptr inbounds %union._znode_op, ptr %4, i32 0, i32 0
  store i32 %1, ptr %7, align 4
  store ptr %0, ptr %5, align 8
  store i32 %2, ptr %6, align 4
  %8 = load i32, ptr %6, align 4
  %9 = and i32 %8, 240
  %10 = icmp eq i32 16, %9
  br i1 %10, label %11, label %15

11:                                               ; preds = %3
  %12 = load ptr, ptr @stderr, align 8
  %13 = load i32, ptr %4, align 4
  %14 = call i32 (ptr, ptr, ...) @fprintf(ptr noundef %12, ptr noundef @.str.25, i32 noundef %13) #4
  br label %72

15:                                               ; preds = %3
  %16 = load i32, ptr %6, align 4
  %17 = and i32 %16, 240
  %18 = icmp eq i32 48, %17
  br i1 %18, label %19, label %27

19:                                               ; preds = %15
  %20 = load i32, ptr %4, align 4
  %21 = icmp ne i32 %20, -1
  br i1 %21, label %22, label %26

22:                                               ; preds = %19
  %23 = load ptr, ptr @stderr, align 8
  %24 = load i32, ptr %4, align 4
  %25 = call i32 (ptr, ptr, ...) @fprintf(ptr noundef %23, ptr noundef @.str.158, i32 noundef %24) #4
  br label %26

26:                                               ; preds = %22, %19
  br label %71

27:                                               ; preds = %15
  %28 = load i32, ptr %6, align 4
  %29 = and i32 %28, 240
  %30 = icmp eq i32 80, %29
  br i1 %30, label %31, label %34

31:                                               ; preds = %27
  %32 = load ptr, ptr @stderr, align 8
  %33 = call i32 (ptr, ptr, ...) @fprintf(ptr noundef %32, ptr noundef @.str.159) #4
  br label %70

34:                                               ; preds = %27
  %35 = load i32, ptr %6, align 4
  %36 = and i32 %35, 240
  %37 = icmp eq i32 96, %36
  br i1 %37, label %38, label %41

38:                                               ; preds = %34
  %39 = load ptr, ptr @stderr, align 8
  %40 = call i32 (ptr, ptr, ...) @fprintf(ptr noundef %39, ptr noundef @.str.160) #4
  br label %69

41:                                               ; preds = %34
  %42 = load i32, ptr %6, align 4
  %43 = and i32 %42, 240
  %44 = icmp eq i32 112, %43
  br i1 %44, label %45, label %47

45:                                               ; preds = %41
  %46 = load i32, ptr %4, align 4
  call void @zend_dump_class_fetch_type(i32 noundef %46)
  br label %68

47:                                               ; preds = %41
  %48 = load i32, ptr %6, align 4
  %49 = and i32 %48, 240
  %50 = icmp eq i32 128, %49
  br i1 %50, label %51, label %54

51:                                               ; preds = %47
  %52 = load ptr, ptr @stderr, align 8
  %53 = call i32 (ptr, ptr, ...) @fprintf(ptr noundef %52, ptr noundef @.str.161) #4
  br label %67

54:                                               ; preds = %47
  %55 = load i32, ptr %6, align 4
  %56 = and i32 %55, 240
  %57 = icmp eq i32 144, %56
  br i1 %57, label %58, label %66

58:                                               ; preds = %54
  %59 = load i32, ptr %4, align 4
  %60 = and i32 %59, 2048
  %61 = icmp ne i32 %60, 0
  br i1 %61, label %62, label %65

62:                                               ; preds = %58
  %63 = load ptr, ptr @stderr, align 8
  %64 = call i32 (ptr, ptr, ...) @fprintf(ptr noundef %63, ptr noundef @.str.162) #4
  br label %65

65:                                               ; preds = %62, %58
  br label %66

66:                                               ; preds = %65, %54
  br label %67

67:                                               ; preds = %66, %51
  br label %68

68:                                               ; preds = %67, %45
  br label %69

69:                                               ; preds = %68, %38
  br label %70

70:                                               ; preds = %69, %31
  br label %71

71:                                               ; preds = %70, %26
  br label %72

72:                                               ; preds = %71, %11
  ret void
}