; Function Attrs: nofree nounwind uwtable
define internal fastcc void @zend_dump_unused_op(i32 %0, i32 noundef %1) unnamed_addr #3 {
  %3 = and i32 %1, 240
  %4 = add nsw i32 %3, -16
  %5 = lshr exact i32 %4, 4
  switch i32 %5, label %zend_dump_class_fetch_type.exit [
    i32 0, label %6
    i32 2, label %9
    i32 4, label %13
    i32 5, label %16
    i32 6, label %19
    i32 7, label %54
    i32 8, label %57
  ]

6:                                                ; preds = %2
  %7 = load ptr, ptr @stderr, align 8
  %8 = tail call i32 (ptr, ptr, ...) @fprintf(ptr noundef %7, ptr noundef nonnull @.str.25, i32 noundef %0) #8
  br label %zend_dump_class_fetch_type.exit

9:                                                ; preds = %2
  %.not12 = icmp eq i32 %0, -1
  br i1 %.not12, label %zend_dump_class_fetch_type.exit, label %10

10:                                               ; preds = %9
  %11 = load ptr, ptr @stderr, align 8
  %12 = tail call i32 (ptr, ptr, ...) @fprintf(ptr noundef %11, ptr noundef nonnull @.str.158, i32 noundef %0) #8
  br label %zend_dump_class_fetch_type.exit

13:                                               ; preds = %2
  %14 = load ptr, ptr @stderr, align 8
  %15 = tail call i64 @fwrite(ptr nonnull @.str.159, i64 5, i64 1, ptr %14) #7
  br label %zend_dump_class_fetch_type.exit

16:                                               ; preds = %2
  %17 = load ptr, ptr @stderr, align 8
  %18 = tail call i64 @fwrite(ptr nonnull @.str.160, i64 5, i64 1, ptr %17) #7
  br label %zend_dump_class_fetch_type.exit

19:                                               ; preds = %2
  %20 = and i32 %0, 15
  switch i32 %20, label %39 [
    i32 1, label %21
    i32 2, label %24
    i32 3, label %27
    i32 4, label %30
    i32 5, label %33
    i32 6, label %36
  ]

21:                                               ; preds = %19
  %22 = load ptr, ptr @stderr, align 8
  %23 = tail call i64 @fwrite(ptr nonnull @.str.163, i64 7, i64 1, ptr %22) #7
  br label %39

24:                                               ; preds = %19
  %25 = load ptr, ptr @stderr, align 8
  %26 = tail call i64 @fwrite(ptr nonnull @.str.164, i64 9, i64 1, ptr %25) #7
  br label %39

27:                                               ; preds = %19
  %28 = load ptr, ptr @stderr, align 8
  %29 = tail call i64 @fwrite(ptr nonnull @.str.165, i64 9, i64 1, ptr %28) #7
  br label %39

30:                                               ; preds = %19
  %31 = load ptr, ptr @stderr, align 8
  %32 = tail call i64 @fwrite(ptr nonnull @.str.166, i64 7, i64 1, ptr %31) #7
  br label %39

33:                                               ; preds = %19
  %34 = load ptr, ptr @stderr, align 8
  %35 = tail call i64 @fwrite(ptr nonnull @.str.167, i64 12, i64 1, ptr %34) #7
  br label %39

36:                                               ; preds = %19
  %37 = load ptr, ptr @stderr, align 8
  %38 = tail call i64 @fwrite(ptr nonnull @.str.168, i64 8, i64 1, ptr %37) #7
  br label %39

39:                                               ; preds = %36, %33, %30, %27, %24, %21, %19
  %40 = and i32 %0, 128
  %.not.i = icmp eq i32 %40, 0
  br i1 %.not.i, label %44, label %41

41:                                               ; preds = %39
  %42 = load ptr, ptr @stderr, align 8
  %43 = tail call i64 @fwrite(ptr nonnull @.str.169, i64 14, i64 1, ptr %42) #7
  br label %44

44:                                               ; preds = %41, %39
  %45 = and i32 %0, 256
  %.not4.i = icmp eq i32 %45, 0
  br i1 %.not4.i, label %49, label %46

46:                                               ; preds = %44
  %47 = load ptr, ptr @stderr, align 8
  %48 = tail call i64 @fwrite(ptr nonnull @.str.170, i64 9, i64 1, ptr %47) #7
  br label %49

49:                                               ; preds = %46, %44
  %50 = and i32 %0, 512
  %.not5.i = icmp eq i32 %50, 0
  br i1 %.not5.i, label %zend_dump_class_fetch_type.exit, label %51

51:                                               ; preds = %49
  %52 = load ptr, ptr @stderr, align 8
  %53 = tail call i64 @fwrite(ptr nonnull @.str.171, i64 12, i64 1, ptr %52) #7
  br label %zend_dump_class_fetch_type.exit

54:                                               ; preds = %2
  %55 = load ptr, ptr @stderr, align 8
  %56 = tail call i64 @fwrite(ptr nonnull @.str.161, i64 12, i64 1, ptr %55) #7
  br label %zend_dump_class_fetch_type.exit

57:                                               ; preds = %2
  %58 = and i32 %0, 2048
  %.not = icmp eq i32 %58, 0
  br i1 %.not, label %zend_dump_class_fetch_type.exit, label %59

59:                                               ; preds = %57
  %60 = load ptr, ptr @stderr, align 8
  %61 = tail call i64 @fwrite(ptr nonnull @.str.162, i64 27, i64 1, ptr %60) #7
  br label %zend_dump_class_fetch_type.exit

zend_dump_class_fetch_type.exit:                  ; preds = %51, %49, %2, %10, %9, %16, %54, %57, %59, %13, %6
  ret void
}